; Function Attrs: nounwind uwtable
define dso_local ptr @shm_mq_get_receiver(ptr noundef %0) local_unnamed_addr #0 {
  %2 = tail call i8 asm sideeffect "\09lock\09\09\09\0A\09xchgb\09$0,$1\09\0A", "=q,=*m,0,*m,~{memory},~{cc},~{dirflag},~{fpsr},~{flags}"(ptr elementtype(i8) %0, i8 1, ptr elementtype(i8) %0) #11, !srcloc !5
  %.not = icmp eq i8 %2, 0
  br i1 %.not, label %5, label %3

3:                                                ; preds = %1
  %4 = tail call i32 @s_lock(ptr noundef %0, ptr noundef nonnull @.str, i32 noundef 246, ptr noundef nonnull @__func__.shm_mq_get_receiver) #11
  br label %5

5:                                                ; preds = %1, %3
  %6 = getelementptr inbounds nuw i8, ptr %0, i64 8
  %7 = load ptr, ptr %6, align 8
  tail call void asm sideeffect "", "~{memory},~{dirflag},~{fpsr},~{flags}"() #11, !srcloc !8
  store i8 0, ptr %0, align 8
  ret ptr %7
}